; Function Attrs: mustprogress nofree norecurse nosync nounwind memory(argmem: readwrite) uwtable
define void @_ZN6LibRaw10aRGB_coeffEPA3_d(ptr noundef nonnull writeonly align 8 captures(none) dereferenceable(767680) %0, ptr noundef readonly captures(none) %1) local_unnamed_addr #8 align 2 {
  %3 = alloca [3 x [3 x double]], align 16
  call void @llvm.lifetime.start.p0(i64 72, ptr nonnull %3) #17
  call void @llvm.memset.p0.i64(ptr noundef nonnull align 16 dereferenceable(72) %3, i8 0, i64 72, i1 false)
  %4 = getelementptr inbounds nuw i8, ptr %0, i64 153208
  br label %.preheader19

.preheader19:                                     ; preds = %2, %17
  %indvars.iv28 = phi i64 [ 0, %2 ], [ %indvars.iv.next29, %17 ]
  br label %.preheader

.preheader:                                       ; preds = %.preheader19, %14
  %indvars.iv24 = phi i64 [ 0, %.preheader19 ], [ %indvars.iv.next25, %14 ]
  %5 = getelementptr inbounds nuw [3 x [3 x double]], ptr %3, i64 0, i64 %indvars.iv28, i64 %indvars.iv24
  %.promoted = load double, ptr %5, align 8, !tbaa !116
  br label %6

6:                                                ; preds = %.preheader, %6
  %indvars.iv = phi i64 [ 0, %.preheader ], [ %indvars.iv.next, %6 ]
  %7 = phi double [ %.promoted, %.preheader ], [ %13, %6 ]
  %8 = getelementptr inbounds nuw [3 x [3 x double]], ptr @_ZZN6LibRaw10aRGB_coeffEPA3_dE8rgb_aRGB, i64 0, i64 %indvars.iv28, i64 %indvars.iv
  %9 = load double, ptr %8, align 8, !tbaa !116
  %10 = getelementptr inbounds nuw [3 x double], ptr %1, i64 %indvars.iv, i64 %indvars.iv24
  %11 = load double, ptr %10, align 8, !tbaa !116
  %12 = fmul reassoc nsz arcp contract afn double %11, %9
  %13 = fadd reassoc nsz arcp contract afn double %7, %12
  %indvars.iv.next = add nuw nsw i64 %indvars.iv, 1
  %exitcond.not = icmp eq i64 %indvars.iv.next, 3
  br i1 %exitcond.not, label %14, label %6, !llvm.loop !117

14:                                               ; preds = %6
  store double %13, ptr %5, align 8, !tbaa !116
  %15 = fptrunc reassoc nsz arcp contract afn double %13 to float
  %16 = getelementptr inbounds nuw [3 x [4 x float]], ptr %4, i64 0, i64 %indvars.iv28, i64 %indvars.iv24
  store float %15, ptr %16, align 4, !tbaa !87
  %indvars.iv.next25 = add nuw nsw i64 %indvars.iv24, 1
  %exitcond27.not = icmp eq i64 %indvars.iv.next25, 3
  br i1 %exitcond27.not, label %17, label %.preheader, !llvm.loop !118

17:                                               ; preds = %14
  %indvars.iv.next29 = add nuw nsw i64 %indvars.iv28, 1
  %exitcond31.not = icmp eq i64 %indvars.iv.next29, 3
  br i1 %exitcond31.not, label %18, label %.preheader19, !llvm.loop !119

18:                                               ; preds = %17
  call void @llvm.lifetime.end.p0(i64 72, ptr nonnull %3) #17
  ret void
}